target datalayout = "e-m:e-p270:32:32-p271:32:32-p272:64:64-i64:64-i128:128-f80:128-n8:16:32:64-S128"
target triple = "x86_64-pc-linux-gnu"

@hf_aim_icbm_channel = internal global i32 0, align 4
@hf_aim_icbm_msg_flags = internal global i32 0, align 4
@hf_aim_icbm_max_snac_size = internal global i32 0, align 4
@hf_aim_icbm_max_sender_warnlevel = internal global i32 0, align 4
@hf_aim_icbm_max_receiver_warnlevel = internal global i32 0, align 4
@hf_aim_icbm_min_msg_interval = internal global i32 0, align 4

; Function Attrs: null_pointer_is_valid sspstrong uwtable
define internal i32 @dissect_aim_msg_params(ptr noundef %0, ptr noundef %1, ptr noundef %2) #0 {
  %4 = alloca ptr, align 8
  %5 = alloca ptr, align 8
  %6 = alloca ptr, align 8
  %7 = alloca i32, align 4
  store ptr %0, ptr %4, align 8
  store ptr %1, ptr %5, align 8
  store ptr %2, ptr %6, align 8
  call void @llvm.lifetime.start.p0(i64 4, ptr %7) #13
  store i32 0, ptr %7, align 4
  %8 = load ptr, ptr %6, align 8
  %9 = load i32, ptr @hf_aim_icbm_channel, align 4
  %10 = load ptr, ptr %4, align 8
  %11 = load i32, ptr %7, align 4
  %12 = call ptr @proto_tree_add_item(ptr noundef %8, i32 noundef %9, ptr noundef %10, i32 noundef %11, i32 noundef 2, i32 noundef 0)
  %13 = load i32, ptr %7, align 4
  %14 = add i32 %13, 2
  store i32 %14, ptr %7, align 4
  %15 = load ptr, ptr %6, align 8
  %16 = load i32, ptr @hf_aim_icbm_msg_flags, align 4
  %17 = load ptr, ptr %4, align 8
  %18 = load i32, ptr %7, align 4
  %19 = call ptr @proto_tree_add_item(ptr noundef %15, i32 noundef %16, ptr noundef %17, i32 noundef %18, i32 noundef 4, i32 noundef 0)
  %20 = load i32, ptr %7, align 4
  %21 = add i32 %20, 4
  store i32 %21, ptr %7, align 4
  %22 = load ptr, ptr %6, align 8
  %23 = load i32, ptr @hf_aim_icbm_max_snac_size, align 4
  %24 = load ptr, ptr %4, align 8
  %25 = load i32, ptr %7, align 4
  %26 = call ptr @proto_tree_add_item(ptr noundef %22, i32 noundef %23, ptr noundef %24, i32 noundef %25, i32 noundef 2, i32 noundef 0)
  %27 = load i32, ptr %7, align 4
  %28 = add i32 %27, 2
  store i32 %28, ptr %7, align 4
  %29 = load ptr, ptr %6, align 8
  %30 = load i32, ptr @hf_aim_icbm_max_sender_warnlevel, align 4
  %31 = load ptr, ptr %4, align 8
  %32 = load i32, ptr %7, align 4
  %33 = call ptr @proto_tree_add_item(ptr noundef %29, i32 noundef %30, ptr noundef %31, i32 noundef %32, i32 noundef 2, i32 noundef 0)
  %34 = load i32, ptr %7, align 4
  %35 = add i32 %34, 2
  store i32 %35, ptr %7, align 4
  %36 = load ptr, ptr %6, align 8
  %37 = load i32, ptr @hf_aim_icbm_max_receiver_warnlevel, align 4
  %38 = load ptr, ptr %4, align 8
  %39 = load i32, ptr %7, align 4
  %40 = call ptr @proto_tree_add_item(ptr noundef %36, i32 noundef %37, ptr noundef %38, i32 noundef %39, i32 noundef 2, i32 noundef 0)
  %41 = load i32, ptr %7, align 4
  %42 = add i32 %41, 2
  store i32 %42, ptr %7, align 4
  %43 = load ptr, ptr %6, align 8
  %44 = load i32, ptr @hf_aim_icbm_min_msg_interval, align 4
  %45 = load ptr, ptr %4, align 8
  %46 = load i32, ptr %7, align 4
  %47 = call ptr @proto_tree_add_item(ptr noundef %43, i32 noundef %44, ptr noundef %45, i32 noundef %46, i32 noundef 4, i32 noundef 0)
  %48 = load i32, ptr %7, align 4
  %49 = add i32 %48, 4
  store i32 %49, ptr %7, align 4
  %50 = load i32, ptr %7, align 4
  call void @llvm.lifetime.end.p0(i64 4, ptr %7) #13
  ret i32 %50
}