; Function Attrs: null_pointer_is_valid sspstrong uwtable
define internal noundef i32 @dissect_aim_msg_params(ptr noundef %0, ptr readnone captures(none) %1, ptr noundef %2) #0 {
  %4 = load i32, ptr @hf_aim_icbm_channel, align 4
  %5 = tail call ptr @proto_tree_add_item(ptr noundef %2, i32 noundef %4, ptr noundef %0, i32 noundef 0, i32 noundef 2, i32 noundef 0)
  %6 = load i32, ptr @hf_aim_icbm_msg_flags, align 4
  %7 = tail call ptr @proto_tree_add_item(ptr noundef %2, i32 noundef %6, ptr noundef %0, i32 noundef 2, i32 noundef 4, i32 noundef 0)
  %8 = load i32, ptr @hf_aim_icbm_max_snac_size, align 4
  %9 = tail call ptr @proto_tree_add_item(ptr noundef %2, i32 noundef %8, ptr noundef %0, i32 noundef 6, i32 noundef 2, i32 noundef 0)
  %10 = load i32, ptr @hf_aim_icbm_max_sender_warnlevel, align 4
  %11 = tail call ptr @proto_tree_add_item(ptr noundef %2, i32 noundef %10, ptr noundef %0, i32 noundef 8, i32 noundef 2, i32 noundef 0)
  %12 = load i32, ptr @hf_aim_icbm_max_receiver_warnlevel, align 4
  %13 = tail call ptr @proto_tree_add_item(ptr noundef %2, i32 noundef %12, ptr noundef %0, i32 noundef 10, i32 noundef 2, i32 noundef 0)
  %14 = load i32, ptr @hf_aim_icbm_min_msg_interval, align 4
  %15 = tail call ptr @proto_tree_add_item(ptr noundef %2, i32 noundef %14, ptr noundef %0, i32 noundef 12, i32 noundef 4, i32 noundef 0)
  ret i32 16
}